; Function Attrs: mustprogress nofree norecurse nosync nounwind memory(argmem: readwrite) uwtable
define dso_local void @meshopt_decodeFilterExp(ptr noundef captures(none) %0, i64 noundef %1, i64 noundef %2) local_unnamed_addr #0 {
  %4 = alloca [16 x i32], align 16
  %5 = lshr i64 %2, 2
  %6 = mul i64 %5, %1
  %7 = and i64 %6, -4
  %.not.i.i = icmp eq i64 %7, 0
  br i1 %.not.i.i, label %_ZN7meshoptL19decodeFilterExpSimdEPjm.exit.i, label %.lr.ph.i.i

.lr.ph.i.i:                                       ; preds = %3, %.lr.ph.i.i
  %.013.i.i = phi i64 [ %18, %.lr.ph.i.i ], [ 0, %3 ]
  %8 = getelementptr inbounds nuw i32, ptr %0, i64 %.013.i.i
  %9 = load <4 x i32>, ptr %8, align 1, !tbaa !4
  %10 = ashr <4 x i32> %9, splat (i32 1)
  %11 = and <4 x i32> %10, splat (i32 -8388608)
  %12 = add nsw <4 x i32> %11, splat (i32 1065353216)
  %13 = shl <4 x i32> %9, splat (i32 8)
  %14 = ashr exact <4 x i32> %13, splat (i32 8)
  %15 = sitofp <4 x i32> %14 to <4 x float>
  %16 = bitcast <4 x i32> %12 to <4 x float>
  %17 = fmul <4 x float> %15, %16
  store <4 x float> %17, ptr %8, align 1, !tbaa !4
  %18 = add nuw i64 %.013.i.i, 4
  %19 = icmp ult i64 %18, %7
  br i1 %19, label %.lr.ph.i.i, label %_ZN7meshoptL19decodeFilterExpSimdEPjm.exit.i, !llvm.loop !13

_ZN7meshoptL19decodeFilterExpSimdEPjm.exit.i:     ; preds = %.lr.ph.i.i, %3
  %.not.i = icmp eq i64 %7, %6
  br i1 %.not.i, label %_ZN7meshoptL12dispatchSimdIjEEvPFvPT_mES2_mm.exit, label %20

20:                                               ; preds = %_ZN7meshoptL19decodeFilterExpSimdEPjm.exit.i
  call void @llvm.lifetime.start.p0(i64 64, ptr nonnull %4)
  call void @llvm.memset.p0.i64(ptr noundef nonnull align 16 dereferenceable(64) %4, i8 0, i64 64, i1 false)
  %21 = and i64 %6, 3
  %22 = shl nuw nsw i64 %21, 2
  %23 = getelementptr inbounds nuw i32, ptr %0, i64 %7
  call void @llvm.memcpy.p0.p0.i64(ptr nonnull align 16 %4, ptr align 4 %23, i64 %22, i1 false)
  %.not.i20.i = icmp eq i64 %21, 0
  br i1 %.not.i20.i, label %_ZN7meshoptL19decodeFilterExpSimdEPjm.exit23.i, label %.lr.ph.i21.i

.lr.ph.i21.i:                                     ; preds = %20
  %.0..0..0..0..i = load <4 x i32>, ptr %4, align 16, !tbaa !4
  %24 = ashr <4 x i32> %.0..0..0..0..i, splat (i32 1)
  %25 = and <4 x i32> %24, splat (i32 -8388608)
  %26 = add nsw <4 x i32> %25, splat (i32 1065353216)
  %27 = shl <4 x i32> %.0..0..0..0..i, splat (i32 8)
  %28 = ashr exact <4 x i32> %27, splat (i32 8)
  %29 = sitofp <4 x i32> %28 to <4 x float>
  %30 = bitcast <4 x i32> %26 to <4 x float>
  %31 = fmul <4 x float> %29, %30
  store <4 x float> %31, ptr %4, align 16, !tbaa !4
  br label %_ZN7meshoptL19decodeFilterExpSimdEPjm.exit23.i, !llvm.loop !13

_ZN7meshoptL19decodeFilterExpSimdEPjm.exit23.i:   ; preds = %.lr.ph.i21.i, %20
  call void @llvm.memcpy.p0.p0.i64(ptr align 4 %23, ptr nonnull align 16 %4, i64 %22, i1 false)
  call void @llvm.lifetime.end.p0(i64 64, ptr nonnull %4)
  br label %_ZN7meshoptL12dispatchSimdIjEEvPFvPT_mES2_mm.exit

_ZN7meshoptL12dispatchSimdIjEEvPFvPT_mES2_mm.exit: ; preds = %_ZN7meshoptL19decodeFilterExpSimdEPjm.exit.i, %_ZN7meshoptL19decodeFilterExpSimdEPjm.exit23.i
  ret void
}